; Function Attrs: mustprogress uwtable
define noundef zeroext i1 @_ZNK7openvdb5v11_06points12AttributeSet10Descriptor17requiresGroupMoveERNSt7__cxx1112basic_stringIcSt11char_traitsIcESaIcEEERmSB_(ptr noundef nonnull align 8 dereferenceable(240) %this, ptr noundef nonnull align 8 dereferenceable(32) %sourceName, ptr nocapture noundef nonnull writeonly align 8 dereferenceable(8) %sourceOffset, ptr nocapture noundef nonnull writeonly align 8 dereferenceable(8) %targetOffset) local_unnamed_addr #3 align 2 personality ptr @__gxx_personality_v0 {
entry:
  %call2 = tail call noundef i64 @_ZNK7openvdb5v11_06points12AttributeSet10Descriptor17unusedGroupOffsetEm(ptr noundef nonnull align 8 dereferenceable(240) %this, i64 noundef -1)
  store i64 %call2, ptr %targetOffset, align 8
  %_M_left.i.i = getelementptr inbounds i8, ptr %this, i64 96
  %0 = load ptr, ptr %_M_left.i.i, align 8
  %add.ptr.i.i = getelementptr inbounds i8, ptr %this, i64 80
  %cmp.i10.not = icmp eq ptr %0, %add.ptr.i.i
  br i1 %cmp.i10.not, label %return, label %for.body

for.body:                                         ; preds = %entry, %for.inc
  %__begin2.sroa.0.011 = phi ptr [ %call.i, %for.inc ], [ %0, %entry ]
  %second = getelementptr inbounds i8, ptr %__begin2.sroa.0.011, i64 64
  %1 = load i64, ptr %second, align 8
  %cmp.not = icmp ult i64 %1, %call2
  br i1 %cmp.not, label %for.inc, label %if.then

if.then:                                          ; preds = %for.body
  %second.le = getelementptr inbounds i8, ptr %__begin2.sroa.0.011, i64 64
  %_M_storage.i.i = getelementptr inbounds i8, ptr %__begin2.sroa.0.011, i64 32
  %call8 = tail call noundef nonnull align 8 dereferenceable(32) ptr @_ZNSt7__cxx1112basic_stringIcSt11char_traitsIcESaIcEEaSERKS4_(ptr noundef nonnull align 8 dereferenceable(32) %sourceName, ptr noundef nonnull align 8 dereferenceable(32) %_M_storage.i.i)
  %2 = load i64, ptr %second.le, align 8
  store i64 %2, ptr %sourceOffset, align 8
  br label %return

for.inc:                                          ; preds = %for.body
  %call.i = tail call noundef ptr @_ZSt18_Rb_tree_incrementPKSt18_Rb_tree_node_base(ptr noundef nonnull %__begin2.sroa.0.011) #30
  %cmp.i.not = icmp eq ptr %call.i, %add.ptr.i.i
  br i1 %cmp.i.not, label %return, label %for.body

return:                                           ; preds = %for.inc, %entry, %if.then
  %cmp.i8 = phi i1 [ true, %if.then ], [ false, %entry ], [ false, %for.inc ]
  ret i1 %cmp.i8
}